target datalayout = "e-m:e-p270:32:32-p271:32:32-p272:64:64-i64:64-i128:128-f80:128-n8:16:32:64-S128"
target triple = "x86_64-pc-linux-gnu"

%struct.ExtensionBlock = type { i32, ptr, i32 }

; Function Attrs: nounwind uwtable
define hidden i32 @GifAddExtensionBlock(ptr noundef %0, ptr noundef %1, i32 noundef %2, i32 noundef %3, ptr noundef %4) #0 {
  %6 = alloca i32, align 4
  %7 = alloca ptr, align 8
  %8 = alloca ptr, align 8
  %9 = alloca i32, align 4
  %10 = alloca i32, align 4
  %11 = alloca ptr, align 8
  %12 = alloca ptr, align 8
  %13 = alloca ptr, align 8
  store ptr %0, ptr %7, align 8
  store ptr %1, ptr %8, align 8
  store i32 %2, ptr %9, align 4
  store i32 %3, ptr %10, align 4
  store ptr %4, ptr %11, align 8
  %14 = load ptr, ptr %8, align 8
  %15 = load ptr, ptr %14, align 8
  %16 = icmp eq ptr %15, null
  br i1 %16, label %17, label %20

17:                                               ; preds = %5
  %18 = call noalias ptr @malloc(i64 noundef 24) #8
  %19 = load ptr, ptr %8, align 8
  store ptr %18, ptr %19, align 8
  br label %34

20:                                               ; preds = %5
  %21 = load ptr, ptr %8, align 8
  %22 = load ptr, ptr %21, align 8
  %23 = load ptr, ptr %7, align 8
  %24 = load i32, ptr %23, align 4
  %25 = add nsw i32 %24, 1
  %26 = sext i32 %25 to i64
  %27 = call ptr @openbsd_reallocarray(ptr noundef %22, i64 noundef %26, i64 noundef 24)
  store ptr %27, ptr %13, align 8
  %28 = load ptr, ptr %13, align 8
  %29 = icmp eq ptr %28, null
  br i1 %29, label %30, label %31

30:                                               ; preds = %20
  store i32 0, ptr %6, align 4
  br label %76

31:                                               ; preds = %20
  %32 = load ptr, ptr %13, align 8
  %33 = load ptr, ptr %8, align 8
  store ptr %32, ptr %33, align 8
  br label %34

34:                                               ; preds = %31, %17
  %35 = load ptr, ptr %8, align 8
  %36 = load ptr, ptr %35, align 8
  %37 = icmp eq ptr %36, null
  br i1 %37, label %38, label %39

38:                                               ; preds = %34
  store i32 0, ptr %6, align 4
  br label %76

39:                                               ; preds = %34
  %40 = load ptr, ptr %8, align 8
  %41 = load ptr, ptr %40, align 8
  %42 = load ptr, ptr %7, align 8
  %43 = load i32, ptr %42, align 4
  %44 = add nsw i32 %43, 1
  store i32 %44, ptr %42, align 4
  %45 = sext i32 %43 to i64
  %46 = getelementptr inbounds %struct.ExtensionBlock, ptr %41, i64 %45
  store ptr %46, ptr %12, align 8
  %47 = load i32, ptr %9, align 4
  %48 = load ptr, ptr %12, align 8
  %49 = getelementptr inbounds %struct.ExtensionBlock, ptr %48, i32 0, i32 2
  store i32 %47, ptr %49, align 8
  %50 = load i32, ptr %10, align 4
  %51 = load ptr, ptr %12, align 8
  %52 = getelementptr inbounds %struct.ExtensionBlock, ptr %51, i32 0, i32 0
  store i32 %50, ptr %52, align 8
  %53 = load ptr, ptr %12, align 8
  %54 = getelementptr inbounds %struct.ExtensionBlock, ptr %53, i32 0, i32 0
  %55 = load i32, ptr %54, align 8
  %56 = sext i32 %55 to i64
  %57 = call noalias ptr @malloc(i64 noundef %56) #8
  %58 = load ptr, ptr %12, align 8
  %59 = getelementptr inbounds %struct.ExtensionBlock, ptr %58, i32 0, i32 1
  store ptr %57, ptr %59, align 8
  %60 = load ptr, ptr %12, align 8
  %61 = getelementptr inbounds %struct.ExtensionBlock, ptr %60, i32 0, i32 1
  %62 = load ptr, ptr %61, align 8
  %63 = icmp eq ptr %62, null
  br i1 %63, label %64, label %65

64:                                               ; preds = %39
  store i32 0, ptr %6, align 4
  br label %76

65:                                               ; preds = %39
  %66 = load ptr, ptr %11, align 8
  %67 = icmp ne ptr %66, null
  br i1 %67, label %68, label %75

68:                                               ; preds = %65
  %69 = load ptr, ptr %12, align 8
  %70 = getelementptr inbounds %struct.ExtensionBlock, ptr %69, i32 0, i32 1
  %71 = load ptr, ptr %70, align 8
  %72 = load ptr, ptr %11, align 8
  %73 = load i32, ptr %10, align 4
  %74 = zext i32 %73 to i64
  call void @llvm.memcpy.p0.p0.i64(ptr align 1 %71, ptr align 1 %72, i64 %74, i1 false)
  br label %75

75:                                               ; preds = %68, %65
  store i32 1, ptr %6, align 4
  br label %76

76:                                               ; preds = %75, %64, %38, %30
  %77 = load i32, ptr %6, align 4
  ret i32 %77
}