; Function Attrs: nounwind uwtable
define hidden range(i32 0, 2) i32 @GifAddExtensionBlock(ptr nocapture noundef %0, ptr nocapture noundef %1, i32 noundef %2, i32 noundef %3, ptr noundef readonly %4) local_unnamed_addr #1 {
  %6 = load ptr, ptr %1, align 8
  %7 = icmp eq ptr %6, null
  br i1 %7, label %14, label %8

8:                                                ; preds = %5
  %9 = load i32, ptr %0, align 4
  %10 = add nsw i32 %9, 1
  %11 = sext i32 %10 to i64
  %12 = tail call ptr @openbsd_reallocarray(ptr noundef nonnull %6, i64 noundef %11, i64 noundef 24) #14
  %13 = icmp eq ptr %12, null
  br i1 %13, label %30, label %.thread

.thread:                                          ; preds = %8
  store ptr %12, ptr %1, align 8
  br label %17

14:                                               ; preds = %5
  %15 = tail call noalias dereferenceable_or_null(24) ptr @malloc(i64 noundef 24) #12
  store ptr %15, ptr %1, align 8
  %16 = icmp eq ptr %15, null
  br i1 %16, label %30, label %17

17:                                               ; preds = %.thread, %14
  %storemerge27 = phi ptr [ %12, %.thread ], [ %15, %14 ]
  %18 = load i32, ptr %0, align 4
  %19 = add nsw i32 %18, 1
  store i32 %19, ptr %0, align 4
  %20 = sext i32 %18 to i64
  %21 = getelementptr inbounds %struct.ExtensionBlock, ptr %storemerge27, i64 %20
  %22 = getelementptr inbounds i8, ptr %21, i64 16
  store i32 %2, ptr %22, align 8
  store i32 %3, ptr %21, align 8
  %23 = sext i32 %3 to i64
  %24 = tail call noalias ptr @malloc(i64 noundef %23) #12
  %25 = getelementptr inbounds i8, ptr %21, i64 8
  store ptr %24, ptr %25, align 8
  %26 = icmp eq ptr %24, null
  br i1 %26, label %30, label %27

27:                                               ; preds = %17
  %.not = icmp eq ptr %4, null
  br i1 %.not, label %30, label %28

28:                                               ; preds = %27
  %29 = zext i32 %3 to i64
  tail call void @llvm.memcpy.p0.p0.i64(ptr nonnull align 1 %24, ptr nonnull align 1 %4, i64 %29, i1 false)
  br label %30

30:                                               ; preds = %27, %28, %17, %14, %8
  %.0 = phi i32 [ 0, %8 ], [ 0, %14 ], [ 0, %17 ], [ 1, %28 ], [ 1, %27 ]
  ret i32 %.0
}